	.file	"optimizadoDin.C"
	.text
	.globl	N
	.bss
	.align 4
	.type	N, @object
	.size	N, 4
N:
	.zero	4
	.globl	ITER
	.align 4
	.type	ITER, @object
	.size	ITER, 4
ITER:
	.zero	4
	.section	.rodata
.LC1:
	.string	"%lf"
	.text
	.globl	main
	.type	main, @function
main:
.LFB15:
	.cfi_startproc
	endbr64
	pushq	%rbp
	.cfi_def_cfa_offset 16
	.cfi_offset 6, -16
	movq	%rsp, %rbp
	.cfi_def_cfa_register 6
	subq	$80, %rsp
	movl	%edi, -68(%rbp)
	movq	%rsi, -80(%rbp)
	movq	%fs:40, %rax
	movq	%rax, -8(%rbp)
	xorl	%eax, %eax
	cmpl	$3, -68(%rbp)
	jne	.L2
	movq	-80(%rbp), %rax
	addq	$8, %rax
	movq	(%rax), %rax
	movq	%rax, %rdi
	call	atoi@PLT
	movl	%eax, N(%rip)
	movq	-80(%rbp), %rax
	addq	$16, %rax
	movq	(%rax), %rax
	movq	%rax, %rdi
	call	atoi@PLT
	movl	%eax, ITER(%rip)
	jmp	.L3
.L2:
	movl	$1000, N(%rip)
	movl	$1000000, ITER(%rip)
.L3:
	leaq	-48(%rbp), %rax
	movl	$0, %esi
	movq	%rax, %rdi
	call	gettimeofday@PLT
	call	_Z6coidgov
	leaq	-32(%rbp), %rax
	movl	$0, %esi
	movq	%rax, %rdi
	call	gettimeofday@PLT
	movq	-32(%rbp), %rdx
	movq	-48(%rbp), %rax
	subq	%rax, %rdx
	movq	%rdx, %rax
	cvtsi2sdq	%rax, %xmm1
	movq	-24(%rbp), %rdx
	movq	-40(%rbp), %rax
	subq	%rax, %rdx
	movq	%rdx, %rax
	cvtsi2sdq	%rax, %xmm0
	movsd	.LC0(%rip), %xmm2
	divsd	%xmm2, %xmm0
	addsd	%xmm1, %xmm0
	movsd	%xmm0, -56(%rbp)
	movq	-56(%rbp), %rax
	movq	%rax, %xmm0
	leaq	.LC1(%rip), %rdi
	movl	$1, %eax
	call	printf@PLT
	movl	$0, %eax
	movq	-8(%rbp), %rcx
	xorq	%fs:40, %rcx
	je	.L5
	call	__stack_chk_fail@PLT
.L5:
	leave
	.cfi_def_cfa 7, 8
	ret
	.cfi_endproc
.LFE15:
	.size	main, .-main
	.globl	_Z6coidgov
	.type	_Z6coidgov, @function
_Z6coidgov:
.LFB16:
	.cfi_startproc
	endbr64
	pushq	%rbp
	.cfi_def_cfa_offset 16
	.cfi_offset 6, -16
	movq	%rsp, %rbp
	.cfi_def_cfa_register 6
	subq	$32, %rsp
	movl	N(%rip), %eax
	movslq	%eax, %rdx
	movq	%rdx, %rax
	addq	%rax, %rax
	addq	%rdx, %rax
	salq	$2, %rax
	movq	%rax, %rdi
	call	malloc@PLT
	movq	%rax, -24(%rbp)
	movl	N(%rip), %eax
	movslq	%eax, %rdx
	movq	%rdx, %rax
	addq	%rax, %rax
	addq	%rdx, %rax
	salq	$2, %rax
	movq	%rax, %rdi
	call	malloc@PLT
	movq	%rax, -16(%rbp)
	movl	N(%rip), %eax
	movslq	%eax, %rdx
	movq	%rdx, %rax
	addq	%rax, %rax
	addq	%rdx, %rax
	salq	$2, %rax
	movq	%rax, %rdi
	call	malloc@PLT
	movq	%rax, -8(%rbp)
	movl	$0, -28(%rbp)
.L10:
	movl	ITER(%rip), %eax
	cmpl	%eax, -28(%rbp)
	jge	.L11
	movl	$0, -32(%rbp)
.L9:
	movl	N(%rip), %eax
	cmpl	%eax, -32(%rbp)
	jge	.L8
	movl	-32(%rbp), %eax
	movslq	%eax, %rdx
	movq	%rdx, %rax
	addq	%rax, %rax
	addq	%rdx, %rax
	salq	$2, %rax
	movq	%rax, %rdx
	movq	-24(%rbp), %rax
	addq	%rdx, %rax
	movss	(%rax), %xmm1
	movl	-32(%rbp), %eax
	movslq	%eax, %rdx
	movq	%rdx, %rax
	addq	%rax, %rax
	addq	%rdx, %rax
	salq	$2, %rax
	movq	%rax, %rdx
	movq	-16(%rbp), %rax
	addq	%rdx, %rax
	movss	(%rax), %xmm0
	movl	-32(%rbp), %eax
	movslq	%eax, %rdx
	movq	%rdx, %rax
	addq	%rax, %rax
	addq	%rdx, %rax
	salq	$2, %rax
	movq	%rax, %rdx
	movq	-8(%rbp), %rax
	addq	%rdx, %rax
	addss	%xmm1, %xmm0
	movss	%xmm0, (%rax)
	movl	-32(%rbp), %eax
	movslq	%eax, %rdx
	movq	%rdx, %rax
	addq	%rax, %rax
	addq	%rdx, %rax
	salq	$2, %rax
	movq	%rax, %rdx
	movq	-24(%rbp), %rax
	addq	%rdx, %rax
	movss	4(%rax), %xmm0
	movl	-32(%rbp), %eax
	movslq	%eax, %rdx
	movq	%rdx, %rax
	addq	%rax, %rax
	addq	%rdx, %rax
	salq	$2, %rax
	movq	%rax, %rdx
	movq	-16(%rbp), %rax
	addq	%rdx, %rax
	movss	4(%rax), %xmm1
	movl	-32(%rbp), %eax
	movslq	%eax, %rdx
	movq	%rdx, %rax
	addq	%rax, %rax
	addq	%rdx, %rax
	salq	$2, %rax
	movq	%rax, %rdx
	movq	-8(%rbp), %rax
	addq	%rdx, %rax
	subss	%xmm1, %xmm0
	movss	%xmm0, 4(%rax)
	movl	-32(%rbp), %eax
	movslq	%eax, %rdx
	movq	%rdx, %rax
	addq	%rax, %rax
	addq	%rdx, %rax
	salq	$2, %rax
	movq	%rax, %rdx
	movq	-24(%rbp), %rax
	addq	%rdx, %rax
	movss	8(%rax), %xmm1
	movl	-32(%rbp), %eax
	movslq	%eax, %rdx
	movq	%rdx, %rax
	addq	%rax, %rax
	addq	%rdx, %rax
	salq	$2, %rax
	movq	%rax, %rdx
	movq	-16(%rbp), %rax
	addq	%rdx, %rax
	movss	8(%rax), %xmm0
	movl	-32(%rbp), %eax
	movslq	%eax, %rdx
	movq	%rdx, %rax
	addq	%rax, %rax
	addq	%rdx, %rax
	salq	$2, %rax
	movq	%rax, %rdx
	movq	-8(%rbp), %rax
	addq	%rdx, %rax
	mulss	%xmm1, %xmm0
	movss	%xmm0, 8(%rax)
	addl	$1, -32(%rbp)
	jmp	.L9
.L8:
	addl	$1, -28(%rbp)
	jmp	.L10
.L11:
	nop
	leave
	.cfi_def_cfa 7, 8
	ret
	.cfi_endproc
.LFE16:
	.size	_Z6coidgov, .-_Z6coidgov
	.section	.rodata
	.align 8
.LC0:
	.long	0
	.long	1093567616
	.ident	"GCC: (Ubuntu 9.3.0-17ubuntu1~20.04) 9.3.0"
	.section	.note.GNU-stack,"",@progbits
	.section	.note.gnu.property,"a"
	.align 8
	.long	 1f - 0f
	.long	 4f - 1f
	.long	 5
0:
	.string	 "GNU"
1:
	.align 8
	.long	 0xc0000002
	.long	 3f - 2f
2:
	.long	 0x3
3:
	.align 8
4:
